	.file	"optimization.cc"
	.text
.Ltext0:
	.section	.text.unlikely,"ax",@progbits
.LCOLDB0:
	.text
.LHOTB0:
	.p2align 4,,15
	.section	.text.unlikely
.Ltext_cold0:
	.text
	.globl	_Z3sumjj
	.type	_Z3sumjj, @function
_Z3sumjj:
.LFB1453:
	.file 1 "optimization.cc"
	.loc 1 4 0
	.cfi_startproc
.LVL0:
	.loc 1 5 0
	xorl	%eax, %eax
.LBB11:
	.loc 1 6 0
	cmpl	%esi, %edi
	ja	.L4
.LVL1:
	.p2align 4,,10
	.p2align 3
.L3:
	.loc 1 7 0 discriminator 2
	movl	%edi, %edx
	.loc 1 6 0 discriminator 2
	addl	$1, %edi
.LVL2:
	.loc 1 7 0 discriminator 2
	addq	%rdx, %rax
.LVL3:
	.loc 1 6 0 discriminator 2
	cmpl	%edi, %esi
	jnb	.L3
	rep ret
.LVL4:
.L4:
.LBE11:
	.loc 1 9 0
	rep ret
	.cfi_endproc
.LFE1453:
	.size	_Z3sumjj, .-_Z3sumjj
	.section	.text.unlikely
.LCOLDE0:
	.text
.LHOTE0:
	.section	.text.unlikely
.LCOLDB1:
	.section	.text.startup,"ax",@progbits
.LHOTB1:
	.p2align 4,,15
	.globl	main
	.type	main, @function
main:
.LFB1454:
	.loc 1 11 0
	.cfi_startproc
	subq	$24, %rsp
	.cfi_def_cfa_offset 32
.LBB12:
.LBB13:
	.loc 1 5 0
	xorl	%esi, %esi
.LBE13:
.LBE12:
	.loc 1 11 0
	movq	%fs:40, %rax
	movq	%rax, 8(%rsp)
	xorl	%eax, %eax
.LVL5:
	movl	$1, %eax
.LVL6:
	.p2align 4,,10
	.p2align 3
.L8:
.LBB16:
.LBB15:
.LBB14:
	.loc 1 7 0
	addq	%rax, %rsi
.LVL7:
	addq	$1, %rax
.LVL8:
	.loc 1 6 0
	cmpq	$1000000001, %rax
	jne	.L8
.LVL9:
.LBE14:
.LBE15:
.LBE16:
.LBB17:
.LBB18:
	.file 2 "/usr/include/c++/5/ostream"
	.loc 2 171 0
	movl	$_ZSt4cout, %edi
	call	_ZNSo9_M_insertImEERSoT_
.LVL10:
.LBE18:
.LBE17:
.LBB19:
.LBB20:
	.loc 2 509 0
	leaq	7(%rsp), %rsi
	movl	$1, %edx
	movq	%rax, %rdi
	movb	$10, 7(%rsp)
.LVL11:
	call	_ZSt16__ostream_insertIcSt11char_traitsIcEERSt13basic_ostreamIT_T0_ES6_PKS3_l
.LVL12:
.LBE20:
.LBE19:
	.loc 1 13 0
	xorl	%eax, %eax
	movq	8(%rsp), %rcx
	xorq	%fs:40, %rcx
	jne	.L12
	addq	$24, %rsp
	.cfi_remember_state
	.cfi_def_cfa_offset 8
	ret
.L12:
	.cfi_restore_state
	call	__stack_chk_fail
.LVL13:
	.cfi_endproc
.LFE1454:
	.size	main, .-main
	.section	.text.unlikely
.LCOLDE1:
	.section	.text.startup
.LHOTE1:
	.section	.text.unlikely
.LCOLDB2:
	.section	.text.startup
.LHOTB2:
	.p2align 4,,15
	.type	_GLOBAL__sub_I__Z3sumjj, @function
_GLOBAL__sub_I__Z3sumjj:
.LFB1638:
	.loc 1 13 0
	.cfi_startproc
.LVL14:
	subq	$8, %rsp
	.cfi_def_cfa_offset 16
.LBB21:
.LBB22:
	.file 3 "/usr/include/c++/5/iostream"
	.loc 3 74 0
	movl	$_ZStL8__ioinit, %edi
	call	_ZNSt8ios_base4InitC1Ev
.LVL15:
	movl	$__dso_handle, %edx
	movl	$_ZStL8__ioinit, %esi
	movl	$_ZNSt8ios_base4InitD1Ev, %edi
.LBE22:
.LBE21:
	.loc 1 13 0
	addq	$8, %rsp
	.cfi_def_cfa_offset 8
.LBB24:
.LBB23:
	.loc 3 74 0
	jmp	__cxa_atexit
.LVL16:
.LBE23:
.LBE24:
	.cfi_endproc
.LFE1638:
	.size	_GLOBAL__sub_I__Z3sumjj, .-_GLOBAL__sub_I__Z3sumjj
	.section	.text.unlikely
.LCOLDE2:
	.section	.text.startup
.LHOTE2:
	.section	.init_array,"aw"
	.align 8
	.quad	_GLOBAL__sub_I__Z3sumjj
	.local	_ZStL8__ioinit
	.comm	_ZStL8__ioinit,1,1
	.text
.Letext0:
	.section	.text.unlikely
.Letext_cold0:
	.file 4 "/usr/include/c++/5/cwchar"
	.file 5 "/usr/include/c++/5/bits/exception_ptr.h"
	.file 6 "/usr/include/x86_64-linux-gnu/c++/5/bits/c++config.h"
	.file 7 "/usr/include/c++/5/type_traits"
	.file 8 "/usr/include/c++/5/debug/debug.h"
	.file 9 "/usr/include/c++/5/bits/char_traits.h"
	.file 10 "/usr/include/c++/5/cstdint"
	.file 11 "/usr/include/c++/5/clocale"
	.file 12 "/usr/include/c++/5/cstdlib"
	.file 13 "/usr/include/c++/5/cstdio"
	.file 14 "/usr/include/c++/5/system_error"
	.file 15 "/usr/include/c++/5/bits/ios_base.h"
	.file 16 "/usr/include/c++/5/cwctype"
	.file 17 "/usr/include/c++/5/iosfwd"
	.file 18 "/usr/include/c++/5/bits/ostream.tcc"
	.file 19 "/usr/include/c++/5/bits/ostream_insert.h"
	.file 20 "/usr/include/c++/5/bits/predefined_ops.h"
	.file 21 "/usr/include/c++/5/ext/new_allocator.h"
	.file 22 "/usr/include/c++/5/ext/numeric_traits.h"
	.file 23 "/usr/include/stdio.h"
	.file 24 "/usr/include/libio.h"
	.file 25 "<built-in>"
	.file 26 "/usr/lib/gcc/x86_64-linux-gnu/5/include/stddef.h"
	.file 27 "/usr/include/wchar.h"
	.file 28 "/usr/include/x86_64-linux-gnu/bits/wchar2.h"
	.file 29 "/usr/include/time.h"
	.file 30 "/usr/include/stdint.h"
	.file 31 "/usr/include/locale.h"
	.file 32 "/usr/include/x86_64-linux-gnu/bits/types.h"
	.file 33 "/usr/include/x86_64-linux-gnu/c++/5/bits/atomic_word.h"
	.file 34 "/usr/include/stdlib.h"
	.file 35 "/usr/include/x86_64-linux-gnu/bits/stdlib-float.h"
	.file 36 "/usr/include/x86_64-linux-gnu/bits/stdlib-bsearch.h"
	.file 37 "/usr/include/x86_64-linux-gnu/bits/stdlib.h"
	.file 38 "/usr/include/_G_config.h"
	.file 39 "/usr/include/x86_64-linux-gnu/bits/stdio2.h"
	.file 40 "/usr/include/x86_64-linux-gnu/bits/stdio.h"
	.file 41 "/usr/include/wctype.h"
	.file 42 "/usr/include/c++/5/bits/stl_pair.h"
	.section	.note.GNU-stack,"",@progbits
