	.file	"00review.cc"
	.text
.Ltext0:
	.section	.rodata
	.type	_ZStL19piecewise_construct, @object
	.size	_ZStL19piecewise_construct, 1
_ZStL19piecewise_construct:
	.zero	1
	.local	_ZStL8__ioinit
	.comm	_ZStL8__ioinit,1,1
	.text
	.globl	main
	.type	main, @function
main:
.LFB1573:
	.file 1 "00review.cc"
	.loc 1 5 12
	.cfi_startproc
	endbr64
	pushq	%rbp
	.cfi_def_cfa_offset 16
	.cfi_offset 6, -16
	movq	%rsp, %rbp
	.cfi_def_cfa_register 6
	subq	$48, %rsp
	.loc 1 5 12
	movq	%fs:40, %rax
	movq	%rax, -8(%rbp)
	xorl	%eax, %eax
	.loc 1 7 10
	movb	$-1, -37(%rbp)
	.loc 1 8 11
	movzbl	-37(%rbp), %eax
	.loc 1 8 21
	addl	$1, %eax
	movl	%eax, %esi
	leaq	_ZSt4cout(%rip), %rdi
	call	_ZNSolsEi@PLT
	movl	$10, %esi
	movq	%rax, %rdi
	call	_ZStlsISt11char_traitsIcEERSt13basic_ostreamIcT_ES5_c@PLT
	.loc 1 9 3
	movzbl	-37(%rbp), %eax
	addl	$1, %eax
	movb	%al, -37(%rbp)
	.loc 1 10 6
	movl	$0, -28(%rbp)
	.loc 1 11 10
	pxor	%xmm0, %xmm0
	movsd	%xmm0, -24(%rbp)
	.loc 1 14 9
	leaq	-36(%rbp), %rax
	movq	%rax, %rsi
	leaq	_ZSt3cin(%rip), %rdi
	call	_ZNSirsERi@PLT
	movq	%rax, %rdx
	.loc 1 14 15
	leaq	-32(%rbp), %rax
	movq	%rax, %rsi
	movq	%rdx, %rdi
	call	_ZNSirsERi@PLT
	.loc 1 15 17
	movl	-36(%rbp), %eax
	movl	-32(%rbp), %ecx
	cltd
	idivl	%ecx
	.loc 1 15 9
	pxor	%xmm0, %xmm0
	cvtsi2sdl	%eax, %xmm0
	movsd	%xmm0, -16(%rbp)
	.loc 1 21 1
	movl	$0, %eax
	movq	-8(%rbp), %rcx
	subq	%fs:40, %rcx
	je	.L3
	call	__stack_chk_fail@PLT
.L3:
	leave
	.cfi_def_cfa 7, 8
	ret
	.cfi_endproc
.LFE1573:
	.size	main, .-main
	.type	_Z41__static_initialization_and_destruction_0ii, @function
_Z41__static_initialization_and_destruction_0ii:
.LFB2067:
	.loc 1 21 1
	.cfi_startproc
	endbr64
	pushq	%rbp
	.cfi_def_cfa_offset 16
	.cfi_offset 6, -16
	movq	%rsp, %rbp
	.cfi_def_cfa_register 6
	subq	$16, %rsp
	movl	%edi, -4(%rbp)
	movl	%esi, -8(%rbp)
	.loc 1 21 1
	cmpl	$1, -4(%rbp)
	jne	.L6
	.loc 1 21 1 is_stmt 0 discriminator 1
	cmpl	$65535, -8(%rbp)
	jne	.L6
	.file 2 "/usr/include/c++/10/iostream"
	.loc 2 74 25 is_stmt 1
	leaq	_ZStL8__ioinit(%rip), %rdi
	call	_ZNSt8ios_base4InitC1Ev@PLT
	leaq	__dso_handle(%rip), %rdx
	leaq	_ZStL8__ioinit(%rip), %rsi
	movq	_ZNSt8ios_base4InitD1Ev@GOTPCREL(%rip), %rax
	movq	%rax, %rdi
	call	__cxa_atexit@PLT
.L6:
	.loc 1 21 1
	nop
	leave
	.cfi_def_cfa 7, 8
	ret
	.cfi_endproc
.LFE2067:
	.size	_Z41__static_initialization_and_destruction_0ii, .-_Z41__static_initialization_and_destruction_0ii
	.type	_GLOBAL__sub_I_main, @function
_GLOBAL__sub_I_main:
.LFB2068:
	.loc 1 21 1
	.cfi_startproc
	endbr64
	pushq	%rbp
	.cfi_def_cfa_offset 16
	.cfi_offset 6, -16
	movq	%rsp, %rbp
	.cfi_def_cfa_register 6
	.loc 1 21 1
	movl	$65535, %esi
	movl	$1, %edi
	call	_Z41__static_initialization_and_destruction_0ii
	popq	%rbp
	.cfi_def_cfa 7, 8
	ret
	.cfi_endproc
.LFE2068:
	.size	_GLOBAL__sub_I_main, .-_GLOBAL__sub_I_main
	.section	.init_array,"aw"
	.align 8
	.quad	_GLOBAL__sub_I_main
	.text
.Letext0:
	.file 3 "/usr/include/c++/10/cwchar"
	.file 4 "/usr/include/c++/10/bits/exception_ptr.h"
	.file 5 "/usr/include/x86_64-linux-gnu/c++/10/bits/c++config.h"
	.file 6 "/usr/include/c++/10/type_traits"
	.file 7 "/usr/include/c++/10/bits/cpp_type_traits.h"
	.file 8 "/usr/include/c++/10/bits/stl_pair.h"
	.file 9 "/usr/include/c++/10/debug/debug.h"
	.file 10 "/usr/include/c++/10/bits/char_traits.h"
	.file 11 "/usr/include/c++/10/cstdint"
	.file 12 "/usr/include/c++/10/clocale"
	.file 13 "/usr/include/c++/10/cstdlib"
	.file 14 "/usr/include/c++/10/cstdio"
	.file 15 "/usr/include/c++/10/bits/basic_string.h"
	.file 16 "/usr/include/c++/10/system_error"
	.file 17 "/usr/include/c++/10/bits/ios_base.h"
	.file 18 "/usr/include/c++/10/cwctype"
	.file 19 "/usr/include/c++/10/iosfwd"
	.file 20 "/usr/include/c++/10/bits/predefined_ops.h"
	.file 21 "/usr/lib/gcc/x86_64-linux-gnu/10/include/stddef.h"
	.file 22 "<built-in>"
	.file 23 "/usr/include/x86_64-linux-gnu/bits/types/wint_t.h"
	.file 24 "/usr/include/x86_64-linux-gnu/bits/types/__mbstate_t.h"
	.file 25 "/usr/include/x86_64-linux-gnu/bits/types/mbstate_t.h"
	.file 26 "/usr/include/x86_64-linux-gnu/bits/types/__FILE.h"
	.file 27 "/usr/include/x86_64-linux-gnu/bits/types/struct_FILE.h"
	.file 28 "/usr/include/x86_64-linux-gnu/bits/types/FILE.h"
	.file 29 "/usr/include/wchar.h"
	.file 30 "/usr/include/x86_64-linux-gnu/bits/types/struct_tm.h"
	.file 31 "/usr/include/x86_64-linux-gnu/bits/types.h"
	.file 32 "/usr/include/x86_64-linux-gnu/bits/stdint-intn.h"
	.file 33 "/usr/include/x86_64-linux-gnu/bits/stdint-uintn.h"
	.file 34 "/usr/include/stdint.h"
	.file 35 "/usr/include/locale.h"
	.file 36 "/usr/include/x86_64-linux-gnu/c++/10/bits/atomic_word.h"
	.file 37 "/usr/include/stdlib.h"
	.file 38 "/usr/include/x86_64-linux-gnu/bits/types/__fpos_t.h"
	.file 39 "/usr/include/stdio.h"
	.file 40 "/usr/include/x86_64-linux-gnu/bits/wctype-wchar.h"
	.file 41 "/usr/include/wctype.h"
	.section	.note.GNU-stack,"",@progbits
	.section	.note.gnu.property,"a"
	.align 8
	.long	 1f - 0f
	.long	 4f - 1f
	.long	 5
0:
	.string	 "GNU"
1:
	.align 8
	.long	 0xc0000002
	.long	 3f - 2f
2:
	.long	 0x3
3:
	.align 8
4:
